target datalayout = "e-m:e-p270:32:32-p271:32:32-p272:64:64-i64:64-i128:128-f80:128-n8:16:32:64-S128"
target triple = "x86_64-pc-linux-gnu"

%struct.Abc_Ntk_t_ = type { i32, i32, ptr, ptr, ptr, ptr, ptr, ptr, ptr, ptr, ptr, ptr, ptr, [11 x i32], i32, i32, i32, i32, ptr, i32, ptr, ptr, i32, i32, i32, double, i32, %struct.Vec_Int_t_, ptr, ptr, ptr, ptr, ptr, float, i32, ptr, ptr, ptr, ptr, ptr, ptr, ptr, ptr, ptr, ptr, ptr, ptr, ptr, ptr, ptr, ptr, ptr, ptr, ptr, ptr, ptr, ptr }
%struct.Vec_Int_t_ = type { i32, i32, ptr }
%struct.Io_ReadBlif_t_ = type { ptr, ptr, ptr, ptr, i32, ptr, ptr, ptr, ptr, ptr, ptr, ptr, float, float, float, float, float, float, float, float, i32, i32, i32, i32, ptr, [1000 x i8], i32 }
%struct.Vec_Ptr_t_ = type { i32, i32, ptr }

@.str.63 = private unnamed_addr constant [70 x i8] c"Wrong number of arguments (%d) on .and_gate_delay line (should be 1).\00", align 1
@.str.64 = private unnamed_addr constant [67 x i8] c"Bad value (%s) for AND gate delay in on .and_gate_delay line line.\00", align 1
@.str.68 = private unnamed_addr constant [8 x i8] c"%s: %s\0A\00", align 1
@.str.69 = private unnamed_addr constant [18 x i8] c"%s (line %d): %s\0A\00", align 1

; Function Attrs: nounwind uwtable
define internal void @Io_ReadBlifPrintErrorMessage(ptr noundef %0) #0 {
  %2 = alloca ptr, align 8
  store ptr %0, ptr %2, align 8, !tbaa !10
  %3 = load ptr, ptr %2, align 8, !tbaa !10
  %4 = getelementptr inbounds nuw %struct.Io_ReadBlif_t_, ptr %3, i32 0, i32 26
  store i32 1, ptr %4, align 8, !tbaa !53
  %5 = load ptr, ptr %2, align 8, !tbaa !10
  %6 = getelementptr inbounds nuw %struct.Io_ReadBlif_t_, ptr %5, i32 0, i32 4
  %7 = load i32, ptr %6, align 8, !tbaa !48
  %8 = icmp eq i32 %7, 0
  br i1 %8, label %9, label %20

9:                                                ; preds = %1
  %10 = load ptr, ptr %2, align 8, !tbaa !10
  %11 = getelementptr inbounds nuw %struct.Io_ReadBlif_t_, ptr %10, i32 0, i32 24
  %12 = load ptr, ptr %11, align 8, !tbaa !37
  %13 = load ptr, ptr %2, align 8, !tbaa !10
  %14 = getelementptr inbounds nuw %struct.Io_ReadBlif_t_, ptr %13, i32 0, i32 0
  %15 = load ptr, ptr %14, align 8, !tbaa !31
  %16 = load ptr, ptr %2, align 8, !tbaa !10
  %17 = getelementptr inbounds nuw %struct.Io_ReadBlif_t_, ptr %16, i32 0, i32 25
  %18 = getelementptr inbounds [1000 x i8], ptr %17, i64 0, i64 0
  %19 = call i32 (ptr, ptr, ...) @fprintf(ptr noundef %12, ptr noundef @.str.68, ptr noundef %15, ptr noundef %18) #10
  br label %34

20:                                               ; preds = %1
  %21 = load ptr, ptr %2, align 8, !tbaa !10
  %22 = getelementptr inbounds nuw %struct.Io_ReadBlif_t_, ptr %21, i32 0, i32 24
  %23 = load ptr, ptr %22, align 8, !tbaa !37
  %24 = load ptr, ptr %2, align 8, !tbaa !10
  %25 = getelementptr inbounds nuw %struct.Io_ReadBlif_t_, ptr %24, i32 0, i32 0
  %26 = load ptr, ptr %25, align 8, !tbaa !31
  %27 = load ptr, ptr %2, align 8, !tbaa !10
  %28 = getelementptr inbounds nuw %struct.Io_ReadBlif_t_, ptr %27, i32 0, i32 4
  %29 = load i32, ptr %28, align 8, !tbaa !48
  %30 = load ptr, ptr %2, align 8, !tbaa !10
  %31 = getelementptr inbounds nuw %struct.Io_ReadBlif_t_, ptr %30, i32 0, i32 25
  %32 = getelementptr inbounds [1000 x i8], ptr %31, i64 0, i64 0
  %33 = call i32 (ptr, ptr, ...) @fprintf(ptr noundef %23, ptr noundef @.str.69, ptr noundef %26, i32 noundef %29, ptr noundef %32) #10
  br label %34

34:                                               ; preds = %20, %9
  ret void
}

; Function Attrs: nounwind uwtable
define internal i32 @Io_ReadBlifNetworkAndGateDelay(ptr noundef %0, ptr noundef %1) #0 {
  %3 = alloca i32, align 4
  %4 = alloca ptr, align 8
  %5 = alloca ptr, align 8
  %6 = alloca ptr, align 8
  %7 = alloca double, align 8
  %8 = alloca i32, align 4
  store ptr %0, ptr %4, align 8, !tbaa !10
  store ptr %1, ptr %5, align 8, !tbaa !70
  call void @llvm.lifetime.start.p0(i64 8, ptr %6) #10
  call void @llvm.lifetime.start.p0(i64 8, ptr %7) #10
  %9 = load ptr, ptr %5, align 8, !tbaa !70
  %10 = getelementptr inbounds nuw %struct.Vec_Ptr_t_, ptr %9, i32 0, i32 1
  %11 = load i32, ptr %10, align 4, !tbaa !81
  %12 = icmp ne i32 %11, 2
  br i1 %12, label %13, label %29

13:                                               ; preds = %2
  %14 = load ptr, ptr %4, align 8, !tbaa !10
  %15 = getelementptr inbounds nuw %struct.Io_ReadBlif_t_, ptr %14, i32 0, i32 1
  %16 = load ptr, ptr %15, align 8, !tbaa !35
  %17 = call i32 @Extra_FileReaderGetLineNumber(ptr noundef %16, i32 noundef 0)
  %18 = load ptr, ptr %4, align 8, !tbaa !10
  %19 = getelementptr inbounds nuw %struct.Io_ReadBlif_t_, ptr %18, i32 0, i32 4
  store i32 %17, ptr %19, align 8, !tbaa !48
  %20 = load ptr, ptr %4, align 8, !tbaa !10
  %21 = getelementptr inbounds nuw %struct.Io_ReadBlif_t_, ptr %20, i32 0, i32 25
  %22 = getelementptr inbounds [1000 x i8], ptr %21, i64 0, i64 0
  %23 = load ptr, ptr %5, align 8, !tbaa !70
  %24 = getelementptr inbounds nuw %struct.Vec_Ptr_t_, ptr %23, i32 0, i32 1
  %25 = load i32, ptr %24, align 4, !tbaa !81
  %26 = sub nsw i32 %25, 1
  %27 = call i32 (ptr, ptr, ...) @sprintf(ptr noundef %22, ptr noundef @.str.63, i32 noundef %26) #10
  %28 = load ptr, ptr %4, align 8, !tbaa !10
  call void @Io_ReadBlifPrintErrorMessage(ptr noundef %28)
  store i32 1, ptr %3, align 4
  store i32 1, ptr %8, align 4
  br label %64

29:                                               ; preds = %2
  %30 = load ptr, ptr %5, align 8, !tbaa !70
  %31 = getelementptr inbounds nuw %struct.Vec_Ptr_t_, ptr %30, i32 0, i32 2
  %32 = load ptr, ptr %31, align 8, !tbaa !45
  %33 = getelementptr inbounds ptr, ptr %32, i64 1
  %34 = load ptr, ptr %33, align 8, !tbaa !47
  %35 = call double @strtod(ptr noundef %34, ptr noundef %6) #10
  store double %35, ptr %7, align 8, !tbaa !136
  %36 = load ptr, ptr %6, align 8, !tbaa !3
  %37 = load i8, ptr %36, align 1, !tbaa !75
  %38 = sext i8 %37 to i32
  %39 = icmp ne i32 %38, 0
  br i1 %39, label %40, label %57

40:                                               ; preds = %29
  %41 = load ptr, ptr %4, align 8, !tbaa !10
  %42 = getelementptr inbounds nuw %struct.Io_ReadBlif_t_, ptr %41, i32 0, i32 1
  %43 = load ptr, ptr %42, align 8, !tbaa !35
  %44 = call i32 @Extra_FileReaderGetLineNumber(ptr noundef %43, i32 noundef 0)
  %45 = load ptr, ptr %4, align 8, !tbaa !10
  %46 = getelementptr inbounds nuw %struct.Io_ReadBlif_t_, ptr %45, i32 0, i32 4
  store i32 %44, ptr %46, align 8, !tbaa !48
  %47 = load ptr, ptr %4, align 8, !tbaa !10
  %48 = getelementptr inbounds nuw %struct.Io_ReadBlif_t_, ptr %47, i32 0, i32 25
  %49 = getelementptr inbounds [1000 x i8], ptr %48, i64 0, i64 0
  %50 = load ptr, ptr %5, align 8, !tbaa !70
  %51 = getelementptr inbounds nuw %struct.Vec_Ptr_t_, ptr %50, i32 0, i32 2
  %52 = load ptr, ptr %51, align 8, !tbaa !45
  %53 = getelementptr inbounds ptr, ptr %52, i64 1
  %54 = load ptr, ptr %53, align 8, !tbaa !47
  %55 = call i32 (ptr, ptr, ...) @sprintf(ptr noundef %49, ptr noundef @.str.64, ptr noundef %54) #10
  %56 = load ptr, ptr %4, align 8, !tbaa !10
  call void @Io_ReadBlifPrintErrorMessage(ptr noundef %56)
  store i32 1, ptr %3, align 4
  store i32 1, ptr %8, align 4
  br label %64

57:                                               ; preds = %29
  %58 = load double, ptr %7, align 8, !tbaa !136
  %59 = fptrunc double %58 to float
  %60 = load ptr, ptr %4, align 8, !tbaa !10
  %61 = getelementptr inbounds nuw %struct.Io_ReadBlif_t_, ptr %60, i32 0, i32 3
  %62 = load ptr, ptr %61, align 8, !tbaa !115
  %63 = getelementptr inbounds nuw %struct.Abc_Ntk_t_, ptr %62, i32 0, i32 33
  store float %59, ptr %63, align 8, !tbaa !138
  store i32 0, ptr %3, align 4
  store i32 1, ptr %8, align 4
  br label %64

64:                                               ; preds = %57, %40, %13
  call void @llvm.lifetime.end.p0(i64 8, ptr %7) #10
  call void @llvm.lifetime.end.p0(i64 8, ptr %6) #10
  %65 = load i32, ptr %3, align 4
  ret i32 %65
}