; Function Attrs: nounwind uwtable
define internal fastcc range(i32 0, 2) i32 @Io_ReadBlifNetworkAndGateDelay(ptr noundef nonnull %0, ptr noundef readonly captures(none) %1) unnamed_addr #0 {
  %3 = alloca ptr, align 8
  call void @llvm.lifetime.start.p0(i64 8, ptr nonnull %3) #14
  %4 = getelementptr inbounds nuw i8, ptr %1, i64 4
  %5 = load i32, ptr %4, align 4, !tbaa !20
  %.not = icmp eq i32 %5, 2
  br i1 %.not, label %25, label %6

6:                                                ; preds = %2
  %7 = getelementptr inbounds nuw i8, ptr %0, i64 8
  %8 = load ptr, ptr %7, align 8, !tbaa !17
  %9 = tail call i32 @Extra_FileReaderGetLineNumber(ptr noundef %8, i32 noundef 0) #14
  %10 = getelementptr inbounds nuw i8, ptr %0, i64 32
  store i32 %9, ptr %10, align 8, !tbaa !41
  %11 = getelementptr inbounds nuw i8, ptr %0, i64 152
  %12 = load i32, ptr %4, align 4, !tbaa !20
  %13 = add nsw i32 %12, -1
  %14 = tail call i32 (ptr, ptr, ...) @sprintf(ptr noundef nonnull dereferenceable(1) %11, ptr noundef nonnull dereferenceable(1) @.str.63, i32 noundef %13) #14
  %15 = getelementptr inbounds nuw i8, ptr %0, i64 1152
  store i32 1, ptr %15, align 8, !tbaa !42
  %16 = load i32, ptr %10, align 8, !tbaa !41
  %17 = icmp eq i32 %16, 0
  %18 = getelementptr inbounds nuw i8, ptr %0, i64 144
  %19 = load ptr, ptr %18, align 8, !tbaa !19
  %20 = load ptr, ptr %0, align 8, !tbaa !3
  br i1 %17, label %21, label %23

21:                                               ; preds = %6
  %22 = tail call i32 (ptr, ptr, ...) @fprintf(ptr noundef %19, ptr noundef nonnull @.str.68, ptr noundef %20, ptr noundef nonnull %11) #14
  br label %Io_ReadBlifPrintErrorMessage.exit

23:                                               ; preds = %6
  %24 = tail call i32 (ptr, ptr, ...) @fprintf(ptr noundef %19, ptr noundef nonnull @.str.69, ptr noundef %20, i32 noundef %16, ptr noundef nonnull %11) #14
  br label %Io_ReadBlifPrintErrorMessage.exit

25:                                               ; preds = %2
  %26 = getelementptr inbounds nuw i8, ptr %1, i64 8
  %27 = load ptr, ptr %26, align 8, !tbaa !23
  %28 = getelementptr inbounds nuw i8, ptr %27, i64 8
  %29 = load ptr, ptr %28, align 8, !tbaa !40
  %30 = call double @strtod(ptr noundef %29, ptr noundef nonnull %3) #14
  %31 = load ptr, ptr %3, align 8, !tbaa !110
  %32 = load i8, ptr %31, align 1, !tbaa !73
  %.not14 = icmp eq i8 %32, 0
  br i1 %.not14, label %53, label %33

33:                                               ; preds = %25
  %34 = getelementptr inbounds nuw i8, ptr %0, i64 8
  %35 = load ptr, ptr %34, align 8, !tbaa !17
  %36 = tail call i32 @Extra_FileReaderGetLineNumber(ptr noundef %35, i32 noundef 0) #14
  %37 = getelementptr inbounds nuw i8, ptr %0, i64 32
  store i32 %36, ptr %37, align 8, !tbaa !41
  %38 = getelementptr inbounds nuw i8, ptr %0, i64 152
  %39 = load ptr, ptr %26, align 8, !tbaa !23
  %40 = getelementptr inbounds nuw i8, ptr %39, i64 8
  %41 = load ptr, ptr %40, align 8, !tbaa !40
  %42 = tail call i32 (ptr, ptr, ...) @sprintf(ptr noundef nonnull dereferenceable(1) %38, ptr noundef nonnull dereferenceable(1) @.str.64, ptr noundef %41) #14
  %43 = getelementptr inbounds nuw i8, ptr %0, i64 1152
  store i32 1, ptr %43, align 8, !tbaa !42
  %44 = load i32, ptr %37, align 8, !tbaa !41
  %45 = icmp eq i32 %44, 0
  %46 = getelementptr inbounds nuw i8, ptr %0, i64 144
  %47 = load ptr, ptr %46, align 8, !tbaa !19
  %48 = load ptr, ptr %0, align 8, !tbaa !3
  br i1 %45, label %49, label %51

49:                                               ; preds = %33
  %50 = tail call i32 (ptr, ptr, ...) @fprintf(ptr noundef %47, ptr noundef nonnull @.str.68, ptr noundef %48, ptr noundef nonnull %38) #14
  br label %Io_ReadBlifPrintErrorMessage.exit

51:                                               ; preds = %33
  %52 = tail call i32 (ptr, ptr, ...) @fprintf(ptr noundef %47, ptr noundef nonnull @.str.69, ptr noundef %48, i32 noundef %44, ptr noundef nonnull %38) #14
  br label %Io_ReadBlifPrintErrorMessage.exit

53:                                               ; preds = %25
  %54 = fptrunc double %30 to float
  %55 = getelementptr inbounds nuw i8, ptr %0, i64 24
  %56 = load ptr, ptr %55, align 8, !tbaa !107
  %57 = getelementptr inbounds nuw i8, ptr %56, i64 280
  store float %54, ptr %57, align 8, !tbaa !124
  br label %Io_ReadBlifPrintErrorMessage.exit

Io_ReadBlifPrintErrorMessage.exit:                ; preds = %51, %49, %23, %21, %53
  %.0 = phi i32 [ 0, %53 ], [ 1, %21 ], [ 1, %23 ], [ 1, %49 ], [ 1, %51 ]
  call void @llvm.lifetime.end.p0(i64 8, ptr nonnull %3) #14
  ret i32 %.0
}